target datalayout = "e-m:e-p270:32:32-p271:32:32-p272:64:64-i64:64-i128:128-f80:128-n8:16:32:64-S128"
target triple = "x86_64-pc-linux-gnu"

; Function Attrs: mustprogress uwtable
define hidden i32 @mbedtls_gcm_crypt_and_tag(ptr noundef %0, i32 noundef %1, i64 noundef %2, ptr noundef %3, i64 noundef %4, ptr noundef %5, i64 noundef %6, ptr noundef %7, ptr noundef %8, i64 noundef %9, ptr noundef %10) #2 {
  %12 = alloca i32, align 4
  %13 = alloca ptr, align 8
  %14 = alloca i32, align 4
  %15 = alloca i64, align 8
  %16 = alloca ptr, align 8
  %17 = alloca i64, align 8
  %18 = alloca ptr, align 8
  %19 = alloca i64, align 8
  %20 = alloca ptr, align 8
  %21 = alloca ptr, align 8
  %22 = alloca i64, align 8
  %23 = alloca ptr, align 8
  %24 = alloca i32, align 4
  %25 = alloca i64, align 8
  %26 = alloca i32, align 4
  store ptr %0, ptr %13, align 8, !tbaa !3
  store i32 %1, ptr %14, align 4, !tbaa !12
  store i64 %2, ptr %15, align 8, !tbaa !21
  store ptr %3, ptr %16, align 8, !tbaa !10
  store i64 %4, ptr %17, align 8, !tbaa !21
  store ptr %5, ptr %18, align 8, !tbaa !10
  store i64 %6, ptr %19, align 8, !tbaa !21
  store ptr %7, ptr %20, align 8, !tbaa !10
  store ptr %8, ptr %21, align 8, !tbaa !10
  store i64 %9, ptr %22, align 8, !tbaa !21
  store ptr %10, ptr %23, align 8, !tbaa !10
  call void @llvm.lifetime.start.p0(i64 4, ptr %24) #6
  store i32 -110, ptr %24, align 4, !tbaa !12
  call void @llvm.lifetime.start.p0(i64 8, ptr %25) #6
  br label %27

27:                                               ; preds = %11
  br label %28

28:                                               ; preds = %27
  br label %29

29:                                               ; preds = %28
  br label %30

30:                                               ; preds = %29
  br label %31

31:                                               ; preds = %30
  br label %32

32:                                               ; preds = %31
  br label %33

33:                                               ; preds = %32
  br label %34

34:                                               ; preds = %33
  br label %35

35:                                               ; preds = %34
  br label %36

36:                                               ; preds = %35
  br label %37

37:                                               ; preds = %36
  br label %38

38:                                               ; preds = %37
  br label %39

39:                                               ; preds = %38
  br label %40

40:                                               ; preds = %39
  br label %41

41:                                               ; preds = %40
  br label %42

42:                                               ; preds = %41
  br label %43

43:                                               ; preds = %42
  br label %44

44:                                               ; preds = %43
  %45 = load ptr, ptr %13, align 8, !tbaa !3
  %46 = load i32, ptr %14, align 4, !tbaa !12
  %47 = load ptr, ptr %16, align 8, !tbaa !10
  %48 = load i64, ptr %17, align 8, !tbaa !21
  %49 = call i32 @mbedtls_gcm_starts(ptr noundef %45, i32 noundef %46, ptr noundef %47, i64 noundef %48)
  store i32 %49, ptr %24, align 4, !tbaa !12
  %50 = icmp ne i32 %49, 0
  br i1 %50, label %51, label %53

51:                                               ; preds = %44
  %52 = load i32, ptr %24, align 4, !tbaa !12
  store i32 %52, ptr %12, align 4
  store i32 1, ptr %26, align 4
  br label %80

53:                                               ; preds = %44
  %54 = load ptr, ptr %13, align 8, !tbaa !3
  %55 = load ptr, ptr %18, align 8, !tbaa !10
  %56 = load i64, ptr %19, align 8, !tbaa !21
  %57 = call i32 @mbedtls_gcm_update_ad(ptr noundef %54, ptr noundef %55, i64 noundef %56)
  store i32 %57, ptr %24, align 4, !tbaa !12
  %58 = icmp ne i32 %57, 0
  br i1 %58, label %59, label %61

59:                                               ; preds = %53
  %60 = load i32, ptr %24, align 4, !tbaa !12
  store i32 %60, ptr %12, align 4
  store i32 1, ptr %26, align 4
  br label %80

61:                                               ; preds = %53
  %62 = load ptr, ptr %13, align 8, !tbaa !3
  %63 = load ptr, ptr %20, align 8, !tbaa !10
  %64 = load i64, ptr %15, align 8, !tbaa !21
  %65 = load ptr, ptr %21, align 8, !tbaa !10
  %66 = load i64, ptr %15, align 8, !tbaa !21
  %67 = call i32 @mbedtls_gcm_update(ptr noundef %62, ptr noundef %63, i64 noundef %64, ptr noundef %65, i64 noundef %66, ptr noundef %25)
  store i32 %67, ptr %24, align 4, !tbaa !12
  %68 = icmp ne i32 %67, 0
  br i1 %68, label %69, label %71

69:                                               ; preds = %61
  %70 = load i32, ptr %24, align 4, !tbaa !12
  store i32 %70, ptr %12, align 4
  store i32 1, ptr %26, align 4
  br label %80

71:                                               ; preds = %61
  %72 = load ptr, ptr %13, align 8, !tbaa !3
  %73 = load ptr, ptr %23, align 8, !tbaa !10
  %74 = load i64, ptr %22, align 8, !tbaa !21
  %75 = call i32 @mbedtls_gcm_finish(ptr noundef %72, ptr noundef null, i64 noundef 0, ptr noundef %25, ptr noundef %73, i64 noundef %74)
  store i32 %75, ptr %24, align 4, !tbaa !12
  %76 = icmp ne i32 %75, 0
  br i1 %76, label %77, label %79

77:                                               ; preds = %71
  %78 = load i32, ptr %24, align 4, !tbaa !12
  store i32 %78, ptr %12, align 4
  store i32 1, ptr %26, align 4
  br label %80

79:                                               ; preds = %71
  store i32 0, ptr %12, align 4
  store i32 1, ptr %26, align 4
  br label %80

80:                                               ; preds = %79, %77, %69, %59, %51
  call void @llvm.lifetime.end.p0(i64 8, ptr %25) #6
  call void @llvm.lifetime.end.p0(i64 4, ptr %24) #6
  %81 = load i32, ptr %12, align 4
  ret i32 %81
}