; Function Attrs: mustprogress uwtable
define hidden i32 @mbedtls_gcm_crypt_and_tag(ptr noundef %0, i32 noundef %1, i64 noundef %2, ptr noundef readonly captures(none) %3, i64 noundef %4, ptr noundef readonly captures(none) %5, i64 noundef %6, ptr noundef %7, ptr noundef %8, i64 noundef %9, ptr noundef captures(none) %10) local_unnamed_addr #2 {
  %12 = alloca i64, align 8
  call void @llvm.lifetime.start.p0(i64 8, ptr nonnull %12) #8
  %13 = tail call i32 @mbedtls_gcm_starts(ptr noundef %0, i32 noundef %1, ptr noundef %3, i64 noundef %4)
  %.not = icmp eq i32 %13, 0
  br i1 %.not, label %14, label %20

14:                                               ; preds = %11
  %15 = tail call i32 @mbedtls_gcm_update_ad(ptr noundef %0, ptr noundef %5, i64 noundef %6)
  %.not23 = icmp eq i32 %15, 0
  br i1 %.not23, label %16, label %20

16:                                               ; preds = %14
  %17 = call i32 @mbedtls_gcm_update(ptr noundef %0, ptr noundef %7, i64 noundef %2, ptr noundef %8, i64 noundef %2, ptr noundef nonnull %12)
  %.not24 = icmp eq i32 %17, 0
  br i1 %.not24, label %18, label %20

18:                                               ; preds = %16
  %19 = call i32 @mbedtls_gcm_finish(ptr noundef %0, ptr poison, i64 poison, ptr noundef nonnull %12, ptr noundef %10, i64 noundef %9)
  br label %20

20:                                               ; preds = %18, %16, %14, %11
  %.0 = phi i32 [ %13, %11 ], [ %15, %14 ], [ %17, %16 ], [ %19, %18 ]
  call void @llvm.lifetime.end.p0(i64 8, ptr nonnull %12) #8
  ret i32 %.0
}